; Function Attrs: mustprogress uwtable
define hidden void @_ZN3opt18maxsmt_solver_base7set_musEb(ptr noundef nonnull readonly align 8 captures(none) dereferenceable(160) %0, i1 noundef zeroext %1) local_unnamed_addr #4 align 2 personality ptr @__gxx_personality_v0 {
  %3 = alloca %class.params_ref, align 8
  call void @llvm.lifetime.start.p0(i64 8, ptr nonnull %3) #25
  store ptr null, ptr %3, align 8, !tbaa !147
  invoke void @_ZN10params_ref8set_boolEPKcb(ptr noundef nonnull align 8 dereferenceable(8) %3, ptr noundef nonnull @.str, i1 noundef zeroext %1)
          to label %4 unwind label %15

4:                                                ; preds = %2
  %5 = getelementptr inbounds nuw i8, ptr %0, i64 16
  %6 = load ptr, ptr %5, align 8, !tbaa !66
  %7 = load ptr, ptr %6, align 8, !tbaa !3
  %8 = getelementptr inbounds nuw i8, ptr %7, i64 32
  %9 = load ptr, ptr %8, align 8
  %10 = invoke noundef nonnull align 8 dereferenceable(96) ptr %9(ptr noundef nonnull align 8 dereferenceable(8) %6)
          to label %_ZN3opt18maxsmt_solver_base1sEv.exit unwind label %15

_ZN3opt18maxsmt_solver_base1sEv.exit:             ; preds = %4
  %11 = load ptr, ptr %10, align 8, !tbaa !3
  %12 = getelementptr inbounds nuw i8, ptr %11, i64 88
  %13 = load ptr, ptr %12, align 8
  invoke void %13(ptr noundef nonnull align 8 dereferenceable(96) %10, ptr noundef nonnull align 8 dereferenceable(8) %3)
          to label %14 unwind label %15

14:                                               ; preds = %_ZN3opt18maxsmt_solver_base1sEv.exit
  call void @_ZN10params_refD1Ev(ptr noundef nonnull align 8 dereferenceable(8) %3) #25
  call void @llvm.lifetime.end.p0(i64 8, ptr nonnull %3) #25
  ret void

15:                                               ; preds = %4, %_ZN3opt18maxsmt_solver_base1sEv.exit, %2
  %16 = landingpad { ptr, i32 }
          cleanup
  call void @_ZN10params_refD1Ev(ptr noundef nonnull align 8 dereferenceable(8) %3) #25
  call void @llvm.lifetime.end.p0(i64 8, ptr nonnull %3) #25
  resume { ptr, i32 } %16
}